target datalayout = "e-m:e-p270:32:32-p271:32:32-p272:64:64-i64:64-i128:128-f80:128-n8:16:32:64-S128"
target triple = "x86_64-pc-linux-gnu"

; Function Attrs: mustprogress nounwind uwtable
define noundef signext i8 @_Z17lightnessToLetteri(i32 noundef %0) #7 {
  %2 = alloca i32, align 4
  %3 = alloca i32, align 4
  store i32 %0, ptr %2, align 4, !tbaa !57
  call void @llvm.lifetime.start.p0(i64 4, ptr %3) #3
  store i32 32, ptr %3, align 4, !tbaa !57
  %4 = load i32, ptr %2, align 4, !tbaa !57
  %5 = icmp slt i32 %4, 16
  br i1 %5, label %6, label %7

6:                                                ; preds = %1
  store i32 32, ptr %3, align 4, !tbaa !57
  br label %43

7:                                                ; preds = %1
  %8 = load i32, ptr %2, align 4, !tbaa !57
  %9 = icmp slt i32 %8, 48
  br i1 %9, label %10, label %11

10:                                               ; preds = %7
  store i32 46, ptr %3, align 4, !tbaa !57
  br label %42

11:                                               ; preds = %7
  %12 = load i32, ptr %2, align 4, !tbaa !57
  %13 = icmp slt i32 %12, 80
  br i1 %13, label %14, label %15

14:                                               ; preds = %11
  store i32 58, ptr %3, align 4, !tbaa !57
  br label %41

15:                                               ; preds = %11
  %16 = load i32, ptr %2, align 4, !tbaa !57
  %17 = icmp slt i32 %16, 112
  br i1 %17, label %18, label %19

18:                                               ; preds = %15
  store i32 45, ptr %3, align 4, !tbaa !57
  br label %40

19:                                               ; preds = %15
  %20 = load i32, ptr %2, align 4, !tbaa !57
  %21 = icmp slt i32 %20, 144
  br i1 %21, label %22, label %23

22:                                               ; preds = %19
  store i32 33, ptr %3, align 4, !tbaa !57
  br label %39

23:                                               ; preds = %19
  %24 = load i32, ptr %2, align 4, !tbaa !57
  %25 = icmp slt i32 %24, 176
  br i1 %25, label %26, label %27

26:                                               ; preds = %23
  store i32 42, ptr %3, align 4, !tbaa !57
  br label %38

27:                                               ; preds = %23
  %28 = load i32, ptr %2, align 4, !tbaa !57
  %29 = icmp slt i32 %28, 208
  br i1 %29, label %30, label %31

30:                                               ; preds = %27
  store i32 43, ptr %3, align 4, !tbaa !57
  br label %37

31:                                               ; preds = %27
  %32 = load i32, ptr %2, align 4, !tbaa !57
  %33 = icmp slt i32 %32, 240
  br i1 %33, label %34, label %35

34:                                               ; preds = %31
  store i32 61, ptr %3, align 4, !tbaa !57
  br label %36

35:                                               ; preds = %31
  store i32 35, ptr %3, align 4, !tbaa !57
  br label %36

36:                                               ; preds = %35, %34
  br label %37

37:                                               ; preds = %36, %30
  br label %38

38:                                               ; preds = %37, %26
  br label %39

39:                                               ; preds = %38, %22
  br label %40

40:                                               ; preds = %39, %18
  br label %41

41:                                               ; preds = %40, %14
  br label %42

42:                                               ; preds = %41, %10
  br label %43

43:                                               ; preds = %42, %6
  %44 = load i32, ptr %3, align 4, !tbaa !57
  %45 = trunc i32 %44 to i8
  call void @llvm.lifetime.end.p0(i64 4, ptr %3) #3
  ret i8 %45
}