; Function Attrs: mustprogress nofree norecurse nosync nounwind willreturn memory(none) uwtable
define noundef signext range(i8 32, 62) i8 @_Z17lightnessToLetteri(i32 noundef %0) local_unnamed_addr #8 {
  %2 = icmp slt i32 %0, 16
  br i1 %2, label %17, label %3

3:                                                ; preds = %1
  %4 = icmp samesign ult i32 %0, 48
  br i1 %4, label %17, label %5

5:                                                ; preds = %3
  %6 = icmp samesign ult i32 %0, 80
  br i1 %6, label %17, label %7

7:                                                ; preds = %5
  %8 = icmp samesign ult i32 %0, 112
  br i1 %8, label %17, label %9

9:                                                ; preds = %7
  %10 = icmp samesign ult i32 %0, 144
  br i1 %10, label %17, label %11

11:                                               ; preds = %9
  %12 = icmp samesign ult i32 %0, 176
  br i1 %12, label %17, label %13

13:                                               ; preds = %11
  %14 = icmp samesign ult i32 %0, 208
  br i1 %14, label %17, label %15

15:                                               ; preds = %13
  %16 = icmp samesign ult i32 %0, 240
  %. = select i1 %16, i8 61, i8 35
  br label %17

17:                                               ; preds = %15, %13, %11, %9, %7, %5, %3, %1
  %.0 = phi i8 [ 32, %1 ], [ 46, %3 ], [ 58, %5 ], [ 45, %7 ], [ 33, %9 ], [ 42, %11 ], [ 43, %13 ], [ %., %15 ]
  ret i8 %.0
}